; Function Attrs: null_pointer_is_valid sspstrong uwtable
define void @decode_dcerpc_reset_all() local_unnamed_addr #0 {
  %1 = load ptr, ptr @decode_dcerpc_bindings, align 8
  %.not1 = icmp eq ptr %1, null
  br i1 %.not1, label %._crit_edge, label %.lr.ph

.lr.ph:                                           ; preds = %0, %decode_dcerpc_binding_free.exit
  %2 = phi ptr [ %28, %decode_dcerpc_binding_free.exit ], [ %1, %0 ]
  %3 = load ptr, ptr %2, align 8
  %4 = tail call ptr @g_slist_remove(ptr noundef nonnull %2, ptr noundef %3)
  store ptr %4, ptr @decode_dcerpc_bindings, align 8
  %5 = load i32, ptr %3, align 8
  %.not.i.i.i = icmp eq i32 %5, 0
  br i1 %.not.i.i.i, label %free_address.exit.i, label %6

6:                                                ; preds = %.lr.ph
  %7 = getelementptr inbounds nuw i8, ptr %3, i64 4
  %8 = load i32, ptr %7, align 4
  %9 = icmp sgt i32 %8, 0
  br i1 %9, label %10, label %free_address.exit.i

10:                                               ; preds = %6
  %11 = getelementptr inbounds nuw i8, ptr %3, i64 16
  %12 = load ptr, ptr %11, align 8
  %.not6.i.i.i = icmp eq ptr %12, null
  br i1 %.not6.i.i.i, label %free_address.exit.i, label %13

13:                                               ; preds = %10
  tail call void @wmem_free(ptr noundef null, ptr noundef nonnull %12)
  br label %free_address.exit.i

free_address.exit.i:                              ; preds = %13, %10, %6, %.lr.ph
  tail call void @llvm.memset.p0.i64(ptr noundef align 8 dereferenceable(24) %3, i8 0, i64 24, i1 false)
  %14 = getelementptr inbounds nuw i8, ptr %3, i64 24
  %15 = load i32, ptr %14, align 8
  %.not.i.i6.i = icmp eq i32 %15, 0
  br i1 %.not.i.i6.i, label %free_address.exit8.i, label %16

16:                                               ; preds = %free_address.exit.i
  %17 = getelementptr inbounds nuw i8, ptr %3, i64 28
  %18 = load i32, ptr %17, align 4
  %19 = icmp sgt i32 %18, 0
  br i1 %19, label %20, label %free_address.exit8.i

20:                                               ; preds = %16
  %21 = getelementptr inbounds nuw i8, ptr %3, i64 40
  %22 = load ptr, ptr %21, align 8
  %.not6.i.i7.i = icmp eq ptr %22, null
  br i1 %.not6.i.i7.i, label %free_address.exit8.i, label %23

23:                                               ; preds = %20
  tail call void @wmem_free(ptr noundef null, ptr noundef nonnull %22)
  br label %free_address.exit8.i

free_address.exit8.i:                             ; preds = %23, %20, %16, %free_address.exit.i
  tail call void @llvm.memset.p0.i64(ptr noundef nonnull align 8 dereferenceable(24) %14, i8 0, i64 24, i1 false)
  %24 = getelementptr inbounds nuw i8, ptr %3, i64 72
  %25 = load ptr, ptr %24, align 8
  %.not.i = icmp eq ptr %25, null
  br i1 %.not.i, label %decode_dcerpc_binding_free.exit, label %26

26:                                               ; preds = %free_address.exit8.i
  %27 = tail call ptr @g_string_free(ptr noundef nonnull %25, i32 noundef 1)
  br label %decode_dcerpc_binding_free.exit

decode_dcerpc_binding_free.exit:                  ; preds = %free_address.exit8.i, %26
  tail call void @g_free(ptr noundef %3)
  %28 = load ptr, ptr @decode_dcerpc_bindings, align 8
  %.not = icmp eq ptr %28, null
  br i1 %.not, label %._crit_edge, label %.lr.ph, !llvm.loop !6

._crit_edge:                                      ; preds = %decode_dcerpc_binding_free.exit, %0
  ret void
}